ccollections
OrderedDict
p0
((lp1
(lp2
S'-511(413(421(-321,211)211)13,-14)'
p3
aI377
aa(lp4
S'-521(413(421(-321,211)211)-211,13,-14)'
p5
aI43
aa(lp6
S'-521(10423(413(421(-321,211)211)-211)13,-14)'
p7
aI28
aa(lp8
S'-521(20423(413(421(-321,211)211)-211)13,-14)'
p9
aI18
aa(lp10
S'511(-413(-421(321,-211)-211)-15(-13,14,-16)16)'
p11
aI13
aa(lp12
S'511(-10413(-413(-421(321,-211)-211)111(22,22))-13,14)'
p13
aI12
aa(lp14
S'511(-20413(-413(-421(321,-211)-211)111(22,22))-13,14)'
p15
aI11
aa(lp16
S'-511(413(421(-321,211)211)111(22,22)13,-14)'
p17
aI6
aa(lp18
S'-531(10433(413(421(-321,211)211)311(310))13,-14)'
p19
aI5
aa(lp20
S'531(-10433(-413(-421(321,-211)-211)-311(130))-13,14)'
p21
aI5
aa(lp22
S'521(-425(-413(-421(321,-211)-211)211)-13,14)'
p23
aI4
aa(lp24
S'521(411(-311(130)-13,14)-413(-421(321,-211)-211)321)'
p25
aI3
aa(lp26
S'-511(415(413(421(-321,211)211)111(22,22))13,-14)'
p27
aI3
aa(lp28
S'511(433(431(333(321,-321)-13,14)22)-413(-421(321,-211)-211))'
p29
aI2
aa(lp30
S'-511(413(421(-321,211)211)-413(-421(321,13,-14)-211)-313(-321,211))'
p31
aI2
aa(lp32
S'521(-20423(-413(-421(321,-211)-211)211)-15(-13,14,-16)16)'
p33
aI2
aa(lp34
S'-511(411(-311(310)-13,14)-413(-421(321,-211)-211)-313(-321,211))'
p35
aI2
aa(lp36
S'-511(-313(-321,211)-413(-421(321,-211)-211)411(-311(310)-13,14))'
p37
aI2
aa(lp38
S'521(411(-311(310)-13,14)-413(-421(321,-211)-211)323(311(130)211))'
p39
aI1
aa(lp40
S'511(-413(-421(321,-211,22)-211)423(421(-323(-311(310)-211)-13,14)22)321)'
p41
aI1
aa(lp42
S'521(411(-311(310)-13,14)-413(-421(321,-211)-211)321)'
p43
aI1
aa(lp44
S'521(-20423(-413(-421(321,-211)-211)211)433(431(333(130,310)-13,14)22))'
p45
aI1
aa(lp46
S'521(413(421(-321,211)211)-411(311(310)13,-14)321)'
p47
aI1
aa(lp48
S'-521(411(-313(-321,211)-13,14,22)-321,-413(-421(321,-211)-211)111(22,22))'
p49
aI1
aa(lp50
S'521(413(421(-323(-321,111(22,22))-13,14)211)-413(-421(321,-211)-211)323(321,111(22,22)))'
p51
aI1
aa(lp52
S'-511(413(421(-321,211)211)-413(-411(111(22,22)13,-14)111(22,22))-311(130))'
p53
aI1
aa(lp54
S'521(-421(323(311(310)211)13,-14)413(421(-321,211)211)313(311(310)111(22,22)))'
p55
aI1
aa(lp56
S'-521(423(421(-321,-13,14,22)111(22,22))-10433(-413(-421(321,-211)-211)-311(130)))'
p57
aI1
aa(lp58
S'511(-413(-421(321,-211)-211)413(411(-313(-321,211)-13,14)22)313(321,-211))'
p59
aI1
aa(lp60
S'-521(-413(-411(313(321,-211)13,-14)111(22,22))413(421(-321,211)211)-321)'
p61
aI1
aa(lp62
S'511(433(431(333(130,310)-13,14)22)-413(-421(321,-211)-211))'
p63
aI1
aa(lp64
S'-521(423(421(-323(-311(310)-211)-13,14)22)-413(-421(321,-211)-211)-311(130))'
p65
aI1
aa(lp66
S'511(-413(-421(321,-211)-211)421(-213(-211,111(22,22))-13,14,22)323(311(310)211))'
p67
aI1
aa(lp68
S'-521(-413(-421(321,-211,22)-211)411(-313(-321,211,22)-13,14)-323(-311(310)-211))'
p69
aI1
aa(lp70
S'-521(423(421(-323(-311(310)-211)-13,14)111(22,22))-413(-421(321,-211,22)-211)-313(-311(130)111(22,22)))'
p71
aI1
aa(lp72
S'-511(413(421(-321,211)211)-423(-421(321,13,-14,22)22)-321)'
p73
aI1
aa(lp74
S'-511(413(411(-313(-321,211)-13,14)111(22,22))-413(-421(321,-211)-211)-313(-311(130)111(22,22)))'
p75
aI1
aa(lp76
S'-511(413(421(-321,211)211)-421(323(321,111(22,22))13,-14)-323(-311(130)-211))'
p77
aI1
aa(lp78
S'-511(411(-313(-321,211)-13,14)-413(-421(321,-211)-211)-313(-321,211))'
p79
aI1
aa(lp80
S'511(-411(311(130)111(22,22)13,-14)413(421(-321,211)211)313(311(310)111(22,22)))'
p81
aI1
aa(lp82
S'-511(413(421(-321,211)211)-411(113(211,-211)13,-14)-311(310))'
p83
aI1
aa(lp84
S'-521(-413(-421(321,13,-14)-211)413(421(-321,211,22)211)-321)'
p85
aI1
aa(lp86
S'-521(-411(313(321,-211)13,-14)413(421(-321,211)211)-321)'
p87
aI1
aa(lp88
S'-511(413(421(-321,211)211)-20433(-433(-431(333(130,310)13,-14)22)111(22,22)))'
p89
aI1
aa(lp90
S'-511(413(421(-321,211)211)-20433(-433(-431(13,-14,22)22)111(22,22)))'
p91
aI1
aa(lp92
S'511(-413(-421(321,-211)-211)411(-313(-311(130)111(22,22))-13,14)311(310))'
p93
aI1
aa(lp94
S'531(-433(-431(221(22,-211,211)13,-14)22)413(421(-321,211)211)311(310))'
p95
aI1
aa(lp96
S'531(-431(221(22,22)13,-14)413(421(-321,211)211)313(321,-211))'
p97
aI1
aa(lp98
S'-511(-413(-421(321,-211,22)-211)211,-321,413(411(-313(-321,211)-13,14)111(22,22)))'
p99
aI1
aa(lp100
S'521(-421(321,13,-14)413(421(-321,211)211)313(311(130)111(22,22)))'
p101
aI1
aa(lp102
S'-511(-313(-321,211)-411(311(310)13,-14)413(421(-321,211)211))'
p103
aI1
aa(lp104
S'521(-411(313(311(310)111(22,22))13,-14)413(421(-321,211)211)323(311(310)211))'
p105
aI1
aa(lp106
S'-531(433(431(-13,14)22)-413(-421(321,-211)-211)-313(-311(130)111(22,22)))'
p107
aI1
aa(lp108
S'-511(413(421(-321,211)211)-431(333(130,310)13,-14))'
p109
aI1
aa(lp110
S'-511(413(421(-321,211)211)-20433(-433(-431(333(321,-321)13,-14)22)111(22,22)))'
p111
aI1
aa(lp112
S'511(-411(313(311(310)111(22,22))13,-14)413(421(-321,211,22)211)313(311(310)111(22,22)))'
p113
aI1
aa(lp114
S'-521(-411(315(321,-211)13,-14)413(421(-321,211)211)-323(-311(310)-211))'
p115
aI1
aa(lp116
S'511(-413(-421(321,-211)-211)20433(431(221(22,22)-13,14)22))'
p117
aI1
aa(lp118
S'-521(-321,213(211,111(22,22))-413(-421(321,-211)-211)421(-323(-311(310)-211)-13,14))'
p119
aI1
aa(lp120
S'-511(413(421(-321,211)211)-423(-421(323(311(130)211)13,-14)22)-321)'
p121
aI1
aa(lp122
S'-521(423(421(-321,-13,14)111(22,22))-413(-421(321,-211)-211)-313(-321,211,22))'
p123
aI1
aa(lp124
S'511(-413(-421(321,-211)-211)323(311(310)211)413(421(-323(-311(130)-211)-13,14)211)-211)'
p125
aI1
aa(lp126
S'-511(413(421(-321,211)211)-411(311(130)13,-14,22)-311(130))'
p127
aI1
aa(lp128
S'-521(423(421(-323(-311(310)-211)-13,14)111(22,22))-413(-421(321,-211)-211)-313(-321,211,22,22))'
p129
aI1
aa(lp130
S'511(423(421(-321,-13,14)111(22,22))323(321,111(22,22))-413(-421(321,-211)-211))'
p131
aI1
aa(lp132
S'521(-421(321,13,-14)413(421(-321,211)211)311(130))'
p133
aI1
aa(lp134
S'-511(-311(130)223(-211,211,111(22,22))-413(-421(321,-211,22)-211)411(-311(130)-13,14,22))'
p135
aI1
aa(lp136
S'-521(423(421(-211,-13,14)111(22,22))-413(-421(321,-211)-211)-311(310))'
p137
aI1
aa(lp138
S'511(-411(311(310)13,-14)413(421(-321,211)211)311(130))'
p139
aI1
aa(lp140
S'521(-423(-421(323(311(310)211)13,-14)111(22,22))413(421(-321,211,22)211)311(310))'
p141
aI1
aa(lp142
S'-511(10413(413(421(-321,211,22)211)111(-11,11,22))13,-14)'
p143
aI1
aa(lp144
S'-511(413(421(-321,211)211)-423(-421(321,13,-14)111(22,22))-321)'
p145
aI1
aa(lp146
S'511(-411(311(310)13,-14)413(421(-321,211)211)311(310))'
p147
aI1
aa(lp148
S'521(413(421(-321,211)211)-413(-411(313(321,-211)13,-14)111(22,22))323(311(310)211))'
p149
aI1
aa(lp150
S'511(-413(-411(311(130)13,-14)111(22,22))413(421(-321,211)211)311(130)22)'
p151
aI1
aa(lp152
S'-521(425(413(421(-321,211)211)-211)15(13,-14,16)-16)'
p153
aI1
aa(lp154
S'511(-413(-421(321,-211)-211)411(-311(130)-13,14))'
p155
aI1
aa(lp156
S'511(-413(-421(321,-211)-211)423(421(-323(-321,111(22,22))-13,14)111(22,22))321)'
p157
aI1
aa(lp158
S'-511(413(421(-321,211)211)-433(-431(333(130,310)13,-14)22))'
p159
aI1
aa(lp160
S'521(-10423(-413(-421(321,-211,22)-211)211)-15(-13,14,-16)16)'
p161
aI1
aa(lp162
S'-521(-413(-421(321,-211,22)-211)413(421(-323(-311(310)-211)-13,14)211)-321)'
p163
aI1
aa(lp164
S'-511(413(421(-321,-13,14)211)-413(-421(321,-211)-211)-311(130))'
p165
aI1
aa(lp166
S'-521(423(421(-321,-13,14)111(22,22))-413(-421(321,-211)-211)-311(310))'
p167
aI1
aa(lp168
S'-511(413(421(-321,211)211)-411(313(321,-211)13,-14)-313(-321,211))'
p169
aI1
aa(lp170
S'521(-423(-421(323(311(130)211)13,-14)22)413(421(-321,211)211)311(130))'
p171
aI1
aa(lp172
S'-511(413(421(-321,211,22)211)-413(-411(313(311(130)111(22,22))13,-14)111(22,22))-313(-321,211,22))'
p173
aI1
aa(lp174
S'521(413(421(-321,211)211)-213(-211,111(22,22))321,-421(321,13,-14))'
p175
aI1
aa(lp176
S'511(-413(-421(321,-211)-211)411(-311(130)-13,14)313(321,-211))'
p177
aI1
aa(lp178
S'521(321,-413(-421(321,13,-14)-211)413(421(-321,211)211)111(22,22))'
p179
aI1
aa(lp180
S'-511(-423(-421(211,13,-14)111(22,22))-323(-311(310)-211)413(421(-321,211,22)211))'
p181
aI1
aa(lp182
S'521(-421(323(321,111(22,22))13,-14)413(421(-321,211)211)311(310))'
p183
aI1
aa(lp184
S'-511(413(421(-321,211)211)-20433(-431(221(111(22,22)111(22,22)111(22,22))13,-14)22))'
p185
aI1
aa(lp186
S'511(-413(-421(321,-211)-211)411(-313(-321,211)-13,14,22)111(22,22)221(22,22)311(130))'
p187
aI1
aa(lp188
S'-511(413(421(-321,211)211)-20433(-433(-431(311(130)13,-14)22)111(22,22)))'
p189
aI1
aa(lp190
S'-521(425(413(421(-321,211)211)-211)-433(-431(221(22,22)13,-14)22))'
p191
aI1
aa(lp192
S'-521(423(421(-323(-321,111(22,22))-13,14)111(22,22))-413(-421(321,-211,22)-211)-311(310))'
p193
aI1
aa(lp194
S'521(-411(313(311(310)111(22,22))13,-14)413(421(-321,211,22)211)323(311(130)211))'
p195
aI1
aa(lp196
S'511(-10413(-413(-421(321,-211)-211)111(22,22))431(331(113(211,-211,22)22)-13,14,22))'
p197
aI1
aa(lp198
S'521(413(411(-311(130)-13,14)111(22,22))-413(-421(321,-211)-211)323(311(130)211))'
p199
aI1
aa(lp200
S'511(-411(311(130)13,-14)413(421(-321,211)211)311(130))'
p201
aI1
aa(lp202
S'521(413(421(-321,211,22)211)-411(311(310)111(22,22)13,-14)323(311(310)211))'
p203
aI1
aa(lp204
S'-521(423(421(-321,-13,14)111(22,22))-413(-421(321,-211)-211)-311(130))'
p205
aI1
aa(lp206
S'511(-10413(-413(-421(321,-211)-211)111(22,22))431(221(22,22)-13,14))'
p207
aI1
aa(lp208
S'521(-421(211,13,-14)413(421(-321,211,22)211)313(311(310)111(22,22)))'
p209
aI1
aa(lp210
S'511(-413(-411(10313(311(310)211,-211)13,-14)111(22,22))413(421(-321,211,22)211)311(310))'
p211
aI1
aa(lp212
S'511(-10413(-413(-421(321,-211,22)-211)111(22,22))433(431(333(130,310)-13,14)111(22,22)))'
p213
aI1
aa(lp214
S'-521(-413(-421(321,-211)-211)411(-311(310)-13,14)111(22,22)-213(-211,111(22,22)))'
p215
aI1
aa(lp216
S'511(-413(-421(321,-211)-211)20433(433(431(221(22,22)-13,14)22)111(22,22)))'
p217
aI1
aatp218
Rp219
.